; Function Attrs: mustprogress uwtable
define internal void @_ZN12_GLOBAL__N_119CommandLineFlagTest14SetUpTestSuiteEv() #3 align 2 personality ptr @__gxx_personality_v0 {
_ZNSt8functionIFNSt7__cxx1112basic_stringIcSt11char_traitsIcESaIcEEESt17basic_string_viewIcS3_EEEaSIPS8_EENSt9enable_ifIXsrNS9_9_CallableIT_NSC_IXntsr7is_sameINSt9remove_cvINSt16remove_referenceISE_E4typeEE4typeES9_EE5valueESt5decayISE_EE4type4typeESt15__invoke_resultIRSP_JS7_EEEE5valueERS9_E4typeEOSE_.exit:
  %default_config = alloca %"struct.absl::FlagsUsageConfig", align 8
  %agg.tmp = alloca %"struct.absl::FlagsUsageConfig", align 8
  call void @llvm.memset.p0.i64(ptr noundef nonnull align 8 dereferenceable(160) %default_config, i8 0, i64 160, i1 false)
  %normalize_filename = getelementptr inbounds i8, ptr %default_config, i64 128
  store ptr @_ZN12_GLOBAL__N_119CommandLineFlagTest17NormalizeFileNameB5cxx11ESt17basic_string_viewIcSt11char_traitsIcEE, ptr %normalize_filename, align 8
  %__tmp.sroa.0.i.i.i.sroa.4.0.normalize_filename.sroa_idx = getelementptr inbounds i8, ptr %default_config, i64 136
  store i64 0, ptr %__tmp.sroa.0.i.i.i.sroa.4.0.normalize_filename.sroa_idx, align 8
  %_M_manager3.i.i = getelementptr inbounds i8, ptr %default_config, i64 144
  store ptr @_ZNSt17_Function_handlerIFNSt7__cxx1112basic_stringIcSt11char_traitsIcESaIcEEESt17basic_string_viewIcS3_EEPS8_E10_M_managerERSt9_Any_dataRKSB_St18_Manager_operation, ptr %_M_manager3.i.i, align 8
  %_M_invoker4.i.i = getelementptr inbounds i8, ptr %default_config, i64 152
  store ptr @_ZNSt17_Function_handlerIFNSt7__cxx1112basic_stringIcSt11char_traitsIcESaIcEEESt17basic_string_viewIcS3_EEPS8_E9_M_invokeERKSt9_Any_dataOS7_, ptr %_M_invoker4.i.i, align 8
  invoke void @_ZN4absl16FlagsUsageConfigC2ERKS0_(ptr noundef nonnull align 8 dereferenceable(160) %agg.tmp, ptr noundef nonnull align 8 dereferenceable(160) %default_config)
          to label %invoke.cont unwind label %lpad

invoke.cont:                                      ; preds = %_ZNSt8functionIFNSt7__cxx1112basic_stringIcSt11char_traitsIcESaIcEEESt17basic_string_viewIcS3_EEEaSIPS8_EENSt9enable_ifIXsrNS9_9_CallableIT_NSC_IXntsr7is_sameINSt9remove_cvINSt16remove_referenceISE_E4typeEE4typeES9_EE5valueESt5decayISE_EE4type4typeESt15__invoke_resultIRSP_JS7_EEEE5valueERS9_E4typeEOSE_.exit
  invoke void @_ZN4absl19SetFlagsUsageConfigENS_16FlagsUsageConfigE(ptr noundef nonnull %agg.tmp)
          to label %invoke.cont2 unwind label %lpad1

invoke.cont2:                                     ; preds = %invoke.cont
  call void @_ZN4absl16FlagsUsageConfigD2Ev(ptr noundef nonnull align 8 dereferenceable(160) %agg.tmp) #18
  call void @_ZN4absl16FlagsUsageConfigD2Ev(ptr noundef nonnull align 8 dereferenceable(160) %default_config) #18
  ret void

lpad:                                             ; preds = %_ZNSt8functionIFNSt7__cxx1112basic_stringIcSt11char_traitsIcESaIcEEESt17basic_string_viewIcS3_EEEaSIPS8_EENSt9enable_ifIXsrNS9_9_CallableIT_NSC_IXntsr7is_sameINSt9remove_cvINSt16remove_referenceISE_E4typeEE4typeES9_EE5valueESt5decayISE_EE4type4typeESt15__invoke_resultIRSP_JS7_EEEE5valueERS9_E4typeEOSE_.exit
  %0 = landingpad { ptr, i32 }
          cleanup
  br label %ehcleanup

lpad1:                                            ; preds = %invoke.cont
  %1 = landingpad { ptr, i32 }
          cleanup
  call void @_ZN4absl16FlagsUsageConfigD2Ev(ptr noundef nonnull align 8 dereferenceable(160) %agg.tmp) #18
  br label %ehcleanup

ehcleanup:                                        ; preds = %lpad1, %lpad
  %.pn = phi { ptr, i32 } [ %1, %lpad1 ], [ %0, %lpad ]
  call void @_ZN4absl16FlagsUsageConfigD2Ev(ptr noundef nonnull align 8 dereferenceable(160) %default_config) #18
  resume { ptr, i32 } %.pn
}